; Function Attrs: mustprogress uwtable
define hidden void @_ZN6Assimp3FBX4Node17WritePropertyNodeERKNSt7__cxx1112basic_stringIcSt11char_traitsIcESaIcEEERKSt6vectorIiSaIiEERNS_12StreamWriterILb0ELb0EEEbi(ptr noundef nonnull readonly align 8 captures(none) dereferenceable(32) %0, ptr noundef nonnull readonly align 8 captures(none) dereferenceable(24) %1, ptr noundef nonnull align 8 dereferenceable(56) %2, i1 noundef zeroext %3, i32 noundef %4) local_unnamed_addr #3 align 2 {
  br i1 %3, label %6, label %7

6:                                                ; preds = %5
  tail call void @_ZN6Assimp3FBX4Node23WritePropertyNodeBinaryERKNSt7__cxx1112basic_stringIcSt11char_traitsIcESaIcEEERKSt6vectorIiSaIiEERNS_12StreamWriterILb0ELb0EEE(ptr noundef nonnull align 8 dereferenceable(32) %0, ptr noundef nonnull align 8 dereferenceable(24) %1, ptr noundef nonnull align 8 dereferenceable(56) %2)
  br label %8

7:                                                ; preds = %5
  tail call void @_ZN6Assimp3FBX4Node22WritePropertyNodeAsciiERKNSt7__cxx1112basic_stringIcSt11char_traitsIcESaIcEEERKSt6vectorIiSaIiEERNS_12StreamWriterILb0ELb0EEEi(ptr noundef nonnull align 8 dereferenceable(32) %0, ptr noundef nonnull align 8 dereferenceable(24) %1, ptr noundef nonnull align 8 dereferenceable(56) %2, i32 noundef %4)
  br label %8

8:                                                ; preds = %7, %6
  ret void
}